target datalayout = "e-m:e-p270:32:32-p271:32:32-p272:64:64-i64:64-i128:128-f80:128-n8:16:32:64-S128"
target triple = "x86_64-pc-linux-gnu"

%struct.Hacl_Hash_Blake2b_blake2_params_s = type { i8, i8, i8, i8, i32, i64, i8, i8, ptr, ptr }
%struct.Hacl_Hash_Blake2b_index_s = type { i8, i8, i8 }

; Function Attrs: nounwind uwtable
define hidden ptr @python_hashlib_Hacl_Hash_Blake2s_Simd128_malloc_with_key0(ptr noundef %0, i8 noundef zeroext %1) #5 {
  %3 = alloca ptr, align 8
  %4 = alloca i8, align 1
  %5 = alloca i8, align 1
  %6 = alloca %struct.Hacl_Hash_Blake2b_index_s, align 1
  %7 = alloca [8 x i8], align 1
  %8 = alloca [8 x i8], align 1
  %9 = alloca %struct.Hacl_Hash_Blake2b_blake2_params_s, align 8
  %10 = alloca %struct.Hacl_Hash_Blake2b_blake2_params_s, align 8
  %11 = alloca ptr, align 8
  store ptr %0, ptr %3, align 8, !tbaa !25
  store i8 %1, ptr %4, align 1, !tbaa !22
  call void @llvm.lifetime.start.p0(i64 1, ptr %5) #14
  store i8 32, ptr %5, align 1, !tbaa !22
  call void @llvm.lifetime.start.p0(i64 3, ptr %6) #14
  %12 = getelementptr inbounds nuw %struct.Hacl_Hash_Blake2b_index_s, ptr %6, i32 0, i32 0
  %13 = load i8, ptr %4, align 1, !tbaa !22
  store i8 %13, ptr %12, align 1, !tbaa !36
  %14 = getelementptr inbounds nuw %struct.Hacl_Hash_Blake2b_index_s, ptr %6, i32 0, i32 1
  %15 = load i8, ptr %5, align 1, !tbaa !22
  store i8 %15, ptr %14, align 1, !tbaa !38
  %16 = getelementptr inbounds nuw %struct.Hacl_Hash_Blake2b_index_s, ptr %6, i32 0, i32 2
  store i8 0, ptr %16, align 1, !tbaa !39
  call void @llvm.lifetime.start.p0(i64 8, ptr %7) #14
  call void @llvm.memset.p0.i64(ptr align 1 %7, i8 0, i64 8, i1 false)
  call void @llvm.lifetime.start.p0(i64 8, ptr %8) #14
  call void @llvm.memset.p0.i64(ptr align 1 %8, i8 0, i64 8, i1 false)
  call void @llvm.lifetime.start.p0(i64 40, ptr %9) #14
  %17 = getelementptr inbounds nuw %struct.Hacl_Hash_Blake2b_blake2_params_s, ptr %9, i32 0, i32 0
  %18 = getelementptr inbounds nuw %struct.Hacl_Hash_Blake2b_index_s, ptr %6, i32 0, i32 1
  %19 = load i8, ptr %18, align 1, !tbaa !38
  store i8 %19, ptr %17, align 8, !tbaa !9
  %20 = getelementptr inbounds nuw %struct.Hacl_Hash_Blake2b_blake2_params_s, ptr %9, i32 0, i32 1
  %21 = getelementptr inbounds nuw %struct.Hacl_Hash_Blake2b_index_s, ptr %6, i32 0, i32 0
  %22 = load i8, ptr %21, align 1, !tbaa !36
  store i8 %22, ptr %20, align 1, !tbaa !13
  %23 = getelementptr inbounds nuw %struct.Hacl_Hash_Blake2b_blake2_params_s, ptr %9, i32 0, i32 2
  store i8 1, ptr %23, align 2, !tbaa !14
  %24 = getelementptr inbounds nuw %struct.Hacl_Hash_Blake2b_blake2_params_s, ptr %9, i32 0, i32 3
  store i8 1, ptr %24, align 1, !tbaa !15
  %25 = getelementptr inbounds nuw %struct.Hacl_Hash_Blake2b_blake2_params_s, ptr %9, i32 0, i32 4
  store i32 0, ptr %25, align 4, !tbaa !16
  %26 = getelementptr inbounds nuw %struct.Hacl_Hash_Blake2b_blake2_params_s, ptr %9, i32 0, i32 5
  store i64 0, ptr %26, align 8, !tbaa !17
  %27 = getelementptr inbounds nuw %struct.Hacl_Hash_Blake2b_blake2_params_s, ptr %9, i32 0, i32 6
  store i8 0, ptr %27, align 8, !tbaa !18
  %28 = getelementptr inbounds nuw %struct.Hacl_Hash_Blake2b_blake2_params_s, ptr %9, i32 0, i32 7
  store i8 0, ptr %28, align 1, !tbaa !19
  %29 = getelementptr i8, ptr %9, i64 18
  call void @llvm.memset.p0.i64(ptr align 2 %29, i8 0, i64 6, i1 false)
  %30 = getelementptr inbounds nuw %struct.Hacl_Hash_Blake2b_blake2_params_s, ptr %9, i32 0, i32 8
  %31 = getelementptr inbounds [8 x i8], ptr %7, i64 0, i64 0
  store ptr %31, ptr %30, align 8, !tbaa !20
  %32 = getelementptr inbounds nuw %struct.Hacl_Hash_Blake2b_blake2_params_s, ptr %9, i32 0, i32 9
  %33 = getelementptr inbounds [8 x i8], ptr %8, i64 0, i64 0
  store ptr %33, ptr %32, align 8, !tbaa !21
  call void @llvm.lifetime.start.p0(i64 40, ptr %10) #14
  call void @llvm.memcpy.p0.p0.i64(ptr align 8 %10, ptr align 8 %9, i64 40, i1 false), !tbaa.struct !35
  call void @llvm.lifetime.start.p0(i64 8, ptr %11) #14
  %34 = load ptr, ptr %3, align 8, !tbaa !25
  %35 = call ptr @python_hashlib_Hacl_Hash_Blake2s_Simd128_malloc_with_params_and_key(ptr noundef %10, i1 noundef zeroext false, ptr noundef %34)
  store ptr %35, ptr %11, align 8, !tbaa !54
  %36 = load ptr, ptr %11, align 8, !tbaa !54
  call void @llvm.lifetime.end.p0(i64 8, ptr %11) #14
  call void @llvm.lifetime.end.p0(i64 40, ptr %10) #14
  call void @llvm.lifetime.end.p0(i64 40, ptr %9) #14
  call void @llvm.lifetime.end.p0(i64 8, ptr %8) #14
  call void @llvm.lifetime.end.p0(i64 8, ptr %7) #14
  call void @llvm.lifetime.end.p0(i64 3, ptr %6) #14
  call void @llvm.lifetime.end.p0(i64 1, ptr %5) #14
  ret ptr %36
}